; Function Attrs: mustprogress uwtable
define noundef i64 @_ZN32pxrInternal_v0_24__pxrReserved__14HioGetDataSizeENS_9HioFormatERKNS_7GfVec3iE(i32 noundef %0, ptr nocapture noundef nonnull readonly align 4 dereferenceable(12) %1) local_unnamed_addr #0 {
  %3 = alloca i64, align 8
  %4 = alloca i64, align 8
  %5 = call noundef i64 @_ZN32pxrInternal_v0_24__pxrReserved__22HioGetDataSizeOfFormatENS_9HioFormatEPmS1_(i32 noundef %0, ptr noundef nonnull %3, ptr noundef nonnull %4)
  %6 = load i32, ptr %1, align 4
  %7 = sext i32 %6 to i64
  %8 = load i64, ptr %3, align 8
  %9 = add nsw i64 %7, -1
  %10 = add i64 %9, %8
  %11 = udiv i64 %10, %8
  %12 = getelementptr inbounds i8, ptr %1, i64 4
  %13 = load i32, ptr %12, align 4
  %14 = sext i32 %13 to i64
  %15 = load i64, ptr %4, align 8
  %16 = add nsw i64 %14, -1
  %17 = add i64 %16, %15
  %18 = udiv i64 %17, %15
  %19 = getelementptr inbounds i8, ptr %1, i64 8
  %20 = load i32, ptr %19, align 4
  %.sroa.speculated = call i32 @llvm.smax.i32(i32 %20, i32 1)
  %21 = zext nneg i32 %.sroa.speculated to i64
  %22 = mul i64 %11, %5
  %23 = mul i64 %22, %18
  %24 = mul i64 %23, %21
  ret i64 %24
}